; Function Attrs: mustprogress nounwind uwtable
define void @_ZN6google8protobuf7strings20GrowingArrayByteSinkD2Ev(ptr nocapture noundef nonnull align 8 dereferenceable(32) %0) unnamed_addr #9 align 2 {
  store ptr getelementptr inbounds inrange(-16, 32) (i8, ptr @_ZTVN6google8protobuf7strings20GrowingArrayByteSinkE, i64 16), ptr %0, align 8
  %2 = getelementptr inbounds i8, ptr %0, i64 16
  %3 = load ptr, ptr %2, align 8
  %4 = icmp eq ptr %3, null
  br i1 %4, label %6, label %5

5:                                                ; preds = %1
  tail call void @_ZdaPv(ptr noundef nonnull %3) #19
  br label %6

6:                                                ; preds = %5, %1
  ret void
}